; Function Attrs: mustprogress uwtable
define void @_ZN7Imf_3_219TiledRgbaOutputFileC2ERNS_7OStreamERKNS_6HeaderENS_12RgbaChannelsEiiNS_9LevelModeENS_17LevelRoundingModeEi(ptr nocapture noundef nonnull writeonly align 8 dereferenceable(24) %this, ptr noundef nonnull align 8 dereferenceable(40) %os, ptr noundef nonnull align 8 dereferenceable(49) %header, i32 noundef %rgbaChannels, i32 noundef %tileXSize, i32 noundef %tileYSize, i32 noundef %mode, i32 noundef %rmode, i32 noundef %numThreads) unnamed_addr #3 align 2 personality ptr @__gxx_personality_v0 {
entry:
  %hd = alloca %"class.Imf_3_2::Header", align 8
  %ref.tmp = alloca %"class.Imf_3_2::TileDescription", align 4
  store ptr getelementptr inbounds ({ [4 x ptr] }, ptr @_ZTVN7Imf_3_219TiledRgbaOutputFileE, i64 0, i32 0, i64 2), ptr %this, align 8
  %_outputFile = getelementptr inbounds i8, ptr %this, i64 8
  %_toYa = getelementptr inbounds i8, ptr %this, i64 16
  tail call void @llvm.memset.p0.i64(ptr noundef nonnull align 8 dereferenceable(16) %_outputFile, i8 0, i64 16, i1 false)
  call void @_ZN7Imf_3_26HeaderC1ERKS0_(ptr noundef nonnull align 8 dereferenceable(49) %hd, ptr noundef nonnull align 8 dereferenceable(49) %header)
  %call = invoke noundef ptr @_ZNK7Imf_3_27OStream8fileNameEv(ptr noundef nonnull align 8 dereferenceable(40) %os)
          to label %invoke.cont unwind label %lpad

invoke.cont:                                      ; preds = %entry
  invoke fastcc void @_ZN7Imf_3_212_GLOBAL__N_114insertChannelsERNS_6HeaderENS_12RgbaChannelsEPKc(ptr noundef nonnull align 8 dereferenceable(49) %hd, i32 noundef %rgbaChannels, ptr noundef %call)
          to label %invoke.cont2 unwind label %lpad

invoke.cont2:                                     ; preds = %invoke.cont
  store i32 %tileXSize, ptr %ref.tmp, align 4
  %ySize.i = getelementptr inbounds i8, ptr %ref.tmp, i64 4
  store i32 %tileYSize, ptr %ySize.i, align 4
  %mode.i = getelementptr inbounds i8, ptr %ref.tmp, i64 8
  store i32 %mode, ptr %mode.i, align 4
  %roundingMode.i = getelementptr inbounds i8, ptr %ref.tmp, i64 12
  store i32 %rmode, ptr %roundingMode.i, align 4
  invoke void @_ZN7Imf_3_26Header18setTileDescriptionERKNS_15TileDescriptionE(ptr noundef nonnull align 8 dereferenceable(49) %hd, ptr noundef nonnull align 4 dereferenceable(16) %ref.tmp)
          to label %invoke.cont4 unwind label %lpad

invoke.cont4:                                     ; preds = %invoke.cont2
  %call6 = invoke noalias noundef nonnull dereferenceable(32) ptr @_Znwm(i64 noundef 32) #13
          to label %invoke.cont5 unwind label %lpad

invoke.cont5:                                     ; preds = %invoke.cont4
  invoke void @_ZN7Imf_3_215TiledOutputFileC1ERNS_7OStreamERKNS_6HeaderEi(ptr noundef nonnull align 8 dereferenceable(25) %call6, ptr noundef nonnull align 8 dereferenceable(40) %os, ptr noundef nonnull align 8 dereferenceable(49) %hd, i32 noundef %numThreads)
          to label %invoke.cont8 unwind label %lpad7

invoke.cont8:                                     ; preds = %invoke.cont5
  store ptr %call6, ptr %_outputFile, align 8
  %and = and i32 %rgbaChannels, 16
  %tobool.not = icmp eq i32 %and, 0
  br i1 %tobool.not, label %if.end, label %if.then

if.then:                                          ; preds = %invoke.cont8
  %call11 = invoke noalias noundef nonnull dereferenceable(80) ptr @_Znwm(i64 noundef 80) #13
          to label %invoke.cont10 unwind label %lpad

invoke.cont10:                                    ; preds = %if.then
  invoke void @_ZN7Imf_3_219TiledRgbaOutputFile4ToYaC2ERNS_15TiledOutputFileENS_12RgbaChannelsE(ptr noundef nonnull align 8 dereferenceable(80) %call11, ptr noundef nonnull align 8 dereferenceable(25) %call6, i32 noundef %rgbaChannels)
          to label %invoke.cont14 unwind label %lpad13

invoke.cont14:                                    ; preds = %invoke.cont10
  store ptr %call11, ptr %_toYa, align 8
  br label %if.end

lpad:                                             ; preds = %if.then, %invoke.cont4, %invoke.cont2, %invoke.cont, %entry
  %0 = landingpad { ptr, i32 }
          cleanup
  br label %ehcleanup

lpad7:                                            ; preds = %invoke.cont5
  %1 = landingpad { ptr, i32 }
          cleanup
  call void @_ZdlPv(ptr noundef nonnull %call6) #14
  br label %ehcleanup

lpad13:                                           ; preds = %invoke.cont10
  %2 = landingpad { ptr, i32 }
          cleanup
  call void @_ZdlPv(ptr noundef nonnull %call11) #14
  br label %ehcleanup

if.end:                                           ; preds = %invoke.cont14, %invoke.cont8
  call void @_ZN7Imf_3_26HeaderD1Ev(ptr noundef nonnull align 8 dereferenceable(49) %hd) #15
  ret void

ehcleanup:                                        ; preds = %lpad13, %lpad7, %lpad
  %.pn = phi { ptr, i32 } [ %2, %lpad13 ], [ %0, %lpad ], [ %1, %lpad7 ]
  call void @_ZN7Imf_3_26HeaderD1Ev(ptr noundef nonnull align 8 dereferenceable(49) %hd) #15
  resume { ptr, i32 } %.pn
}